; ModuleID = 'source-C-CXX/52/48.c'
source_filename = "source-C-CXX/52/48.c"
target datalayout = "e-m:e-p270:32:32-p271:32:32-p272:64:64-i64:64-f80:128-n8:16:32:64-S128"
target triple = "x86_64-pc-linux-gnu"

@.str = private unnamed_addr constant [3 x i8] c"%d\00", align 1
@.str.1 = private unnamed_addr constant [4 x i8] c",%d\00", align 1

; Function Attrs: nofree nounwind sspstrong uwtable
define dso_local void @main() local_unnamed_addr #0 {
  %1 = alloca i32, align 4
  %2 = alloca [300 x i32], align 16
  %3 = alloca [300 x i32], align 16
  %4 = bitcast i32* %1 to i8*
  call void @llvm.lifetime.start.p0i8(i64 4, i8* nonnull %4) #4
  %5 = call i32 (i8*, ...) @__isoc99_scanf(i8* getelementptr inbounds ([3 x i8], [3 x i8]* @.str, i64 0, i64 0), i32* nonnull %1)
  %6 = bitcast [300 x i32]* %2 to i8*
  call void @llvm.lifetime.start.p0i8(i64 1200, i8* nonnull %6) #4
  %7 = load i32, i32* %1, align 4, !tbaa !5
  %8 = icmp sgt i32 %7, 0
  br i1 %8, label %11, label %9

9:                                                ; preds = %0
  %10 = bitcast [300 x i32]* %3 to i8*
  call void @llvm.lifetime.start.p0i8(i64 1200, i8* nonnull %10) #4
  call void @llvm.memset.p0i8.i64(i8* noundef nonnull align 16 dereferenceable(1200) %10, i8 0, i64 1200, i1 false)
  br label %73

11:                                               ; preds = %0, %11
  %12 = phi i64 [ %15, %11 ], [ 0, %0 ]
  %13 = getelementptr inbounds [300 x i32], [300 x i32]* %2, i64 0, i64 %12
  %14 = call i32 (i8*, ...) @__isoc99_scanf(i8* getelementptr inbounds ([3 x i8], [3 x i8]* @.str, i64 0, i64 0), i32* nonnull %13)
  %15 = add nuw nsw i64 %12, 1
  %16 = load i32, i32* %1, align 4, !tbaa !5
  %17 = sext i32 %16 to i64
  %18 = icmp slt i64 %15, %17
  br i1 %18, label %11, label %19, !llvm.loop !9

19:                                               ; preds = %11
  %20 = bitcast [300 x i32]* %3 to i8*
  call void @llvm.lifetime.start.p0i8(i64 1200, i8* nonnull %20) #4
  call void @llvm.memset.p0i8.i64(i8* noundef nonnull align 16 dereferenceable(1200) %20, i8 0, i64 1200, i1 false)
  %21 = icmp sgt i32 %16, 0
  br i1 %21, label %22, label %73

22:                                               ; preds = %19
  %23 = zext i32 %16 to i64
  br label %24

24:                                               ; preds = %22, %69
  %25 = phi i64 [ 0, %22 ], [ %71, %69 ]
  %26 = phi i32 [ 0, %22 ], [ %70, %69 ]
  %27 = getelementptr inbounds [300 x i32], [300 x i32]* %2, i64 0, i64 %25
  %28 = load i32, i32* %27, align 4, !tbaa !5
  br label %29

29:                                               ; preds = %29, %24
  %30 = phi i64 [ 0, %24 ], [ %61, %29 ]
  %31 = phi i32 [ 1, %24 ], [ %60, %29 ]
  %32 = getelementptr inbounds [300 x i32], [300 x i32]* %3, i64 0, i64 %30
  %33 = load i32, i32* %32, align 8, !tbaa !5
  %34 = icmp eq i32 %33, %28
  %35 = or i64 %30, 1
  %36 = getelementptr inbounds [300 x i32], [300 x i32]* %3, i64 0, i64 %35
  %37 = load i32, i32* %36, align 4, !tbaa !5
  %38 = icmp eq i32 %37, %28
  %39 = add nuw nsw i64 %30, 2
  %40 = getelementptr inbounds [300 x i32], [300 x i32]* %3, i64 0, i64 %39
  %41 = load i32, i32* %40, align 8, !tbaa !5
  %42 = icmp eq i32 %41, %28
  %43 = add nuw nsw i64 %30, 3
  %44 = getelementptr inbounds [300 x i32], [300 x i32]* %3, i64 0, i64 %43
  %45 = load i32, i32* %44, align 4, !tbaa !5
  %46 = icmp eq i32 %45, %28
  %47 = add nuw nsw i64 %30, 4
  %48 = getelementptr inbounds [300 x i32], [300 x i32]* %3, i64 0, i64 %47
  %49 = load i32, i32* %48, align 8, !tbaa !5
  %50 = icmp eq i32 %49, %28
  %51 = add nuw nsw i64 %30, 5
  %52 = getelementptr inbounds [300 x i32], [300 x i32]* %3, i64 0, i64 %51
  %53 = load i32, i32* %52, align 4, !tbaa !5
  %54 = icmp eq i32 %53, %28
  %55 = select i1 %54, i1 true, i1 %50
  %56 = select i1 %55, i1 true, i1 %46
  %57 = select i1 %56, i1 true, i1 %42
  %58 = select i1 %57, i1 true, i1 %38
  %59 = select i1 %58, i1 true, i1 %34
  %60 = select i1 %59, i32 0, i32 %31
  %61 = add nuw nsw i64 %30, 6
  %62 = icmp eq i64 %61, 300
  br i1 %62, label %63, label %29, !llvm.loop !11

63:                                               ; preds = %29
  %64 = icmp eq i32 %60, 1
  br i1 %64, label %65, label %69

65:                                               ; preds = %63
  %66 = sext i32 %26 to i64
  %67 = getelementptr inbounds [300 x i32], [300 x i32]* %3, i64 0, i64 %66
  store i32 %28, i32* %67, align 4, !tbaa !5
  %68 = add nsw i32 %26, 1
  br label %69

69:                                               ; preds = %65, %63
  %70 = phi i32 [ %68, %65 ], [ %26, %63 ]
  %71 = add nuw nsw i64 %25, 1
  %72 = icmp eq i64 %71, %23
  br i1 %72, label %75, label %24, !llvm.loop !12

73:                                               ; preds = %19, %9
  %74 = call i32 (i8*, ...) @printf(i8* nonnull dereferenceable(1) getelementptr inbounds ([3 x i8], [3 x i8]* @.str, i64 0, i64 0), i32 0)
  br label %92

75:                                               ; preds = %69
  %76 = getelementptr inbounds [300 x i32], [300 x i32]* %3, i64 0, i64 0
  %77 = load i32, i32* %76, align 16, !tbaa !5
  %78 = call i32 (i8*, ...) @printf(i8* nonnull dereferenceable(1) getelementptr inbounds ([3 x i8], [3 x i8]* @.str, i64 0, i64 0), i32 %77)
  %79 = icmp sgt i32 %70, 1
  br i1 %79, label %80, label %92

80:                                               ; preds = %75
  %81 = zext i32 %70 to i64
  br label %82

82:                                               ; preds = %80, %89
  %83 = phi i64 [ 1, %80 ], [ %90, %89 ]
  %84 = getelementptr inbounds [300 x i32], [300 x i32]* %3, i64 0, i64 %83
  %85 = load i32, i32* %84, align 4, !tbaa !5
  %86 = icmp eq i32 %85, 0
  br i1 %86, label %89, label %87

87:                                               ; preds = %82
  %88 = call i32 (i8*, ...) @printf(i8* nonnull dereferenceable(1) getelementptr inbounds ([4 x i8], [4 x i8]* @.str.1, i64 0, i64 0), i32 %85)
  br label %89

89:                                               ; preds = %82, %87
  %90 = add nuw nsw i64 %83, 1
  %91 = icmp eq i64 %90, %81
  br i1 %91, label %92, label %82, !llvm.loop !13

92:                                               ; preds = %89, %73, %75
  %93 = bitcast [300 x i32]* %3 to i8*
  call void @llvm.lifetime.end.p0i8(i64 1200, i8* nonnull %93) #4
  call void @llvm.lifetime.end.p0i8(i64 1200, i8* nonnull %6) #4
  call void @llvm.lifetime.end.p0i8(i64 4, i8* nonnull %4) #4
  ret void
}

; Function Attrs: argmemonly mustprogress nofree nosync nounwind willreturn
declare void @llvm.lifetime.start.p0i8(i64 immarg, i8* nocapture) #1

; Function Attrs: nofree nounwind
declare noundef i32 @__isoc99_scanf(i8* nocapture noundef readonly, ...) local_unnamed_addr #2

; Function Attrs: argmemonly mustprogress nofree nounwind willreturn writeonly
declare void @llvm.memset.p0i8.i64(i8* nocapture writeonly, i8, i64, i1 immarg) #3

; Function Attrs: argmemonly mustprogress nofree nosync nounwind willreturn
declare void @llvm.lifetime.end.p0i8(i64 immarg, i8* nocapture) #1

; Function Attrs: nofree nounwind
declare noundef i32 @printf(i8* nocapture noundef readonly, ...) local_unnamed_addr #2


!llvm.module.flags = !{!0, !1, !2, !3}
!llvm.ident = !{!4}

!0 = !{i32 1, !"wchar_size", i32 4}
!1 = !{i32 7, !"PIC Level", i32 2}
!2 = !{i32 7, !"PIE Level", i32 2}
!3 = !{i32 7, !"uwtable", i32 1}
!4 = !{!"clang version 13.0.0"}
!5 = !{!6, !6, i64 0}
!6 = !{!"int", !7, i64 0}
!7 = !{!"omnipotent char", !8, i64 0}
!8 = !{!"Simple C/C++ TBAA"}
!9 = distinct !{!9, !10}
!10 = !{!"llvm.loop.mustprogress"}
!11 = distinct !{!11, !10}
!12 = distinct !{!12, !10}
!13 = distinct !{!13, !10}
